target datalayout = "e-m:e-p270:32:32-p271:32:32-p272:64:64-i64:64-i128:128-f80:128-n8:16:32:64-S128"
target triple = "x86_64-pc-linux-gnu"

%struct.lua_State = type { i8, i8, i8, i8, i8, i8, i8, ptr, ptr, ptr, ptr, ptr, ptr, ptr, ptr, i32, i32, i16, i16, i32, ptr, ptr, ptr, ptr, ptr }
%struct.lua_TValue = type { %union.Value, [1 x i32], i32 }
%union.Value = type { ptr }

@.str.29 = private unnamed_addr constant [12 x i8] c"__metatable\00", align 1
@.str.30 = private unnamed_addr constant [32 x i8] c"table has a protected metatable\00", align 1

; Function Attrs: mustprogress uwtable
define internal noundef i32 @_ZL6tcloneP9lua_State(ptr noundef %0) #0 {
  %2 = alloca ptr, align 8
  %3 = alloca ptr, align 8
  %4 = alloca %struct.lua_TValue, align 8
  %5 = alloca ptr, align 8
  store ptr %0, ptr %2, align 8, !tbaa !4
  %6 = load ptr, ptr %2, align 8, !tbaa !4
  call void @_Z14luaL_checktypeP9lua_Stateii(ptr noundef %6, i32 noundef 1, i32 noundef 6)
  %7 = load ptr, ptr %2, align 8, !tbaa !4
  %8 = call noundef i32 @_Z17luaL_getmetafieldP9lua_StateiPKc(ptr noundef %7, i32 noundef 1, ptr noundef @.str.29)
  %9 = icmp ne i32 %8, 0
  br i1 %9, label %11, label %10

10:                                               ; preds = %1
  br label %14

11:                                               ; preds = %1
  %12 = load ptr, ptr %2, align 8, !tbaa !4
  call void @_Z14luaL_argerrorLP9lua_StateiPKc(ptr noundef %12, i32 noundef 1, ptr noundef @.str.30) #8
  unreachable

13:                                               ; No predecessors!
  br label %14

14:                                               ; preds = %13, %10
  call void @llvm.lifetime.start.p0(i64 8, ptr %3) #7
  %15 = load ptr, ptr %2, align 8, !tbaa !4
  %16 = load ptr, ptr %2, align 8, !tbaa !4
  %17 = getelementptr inbounds nuw %struct.lua_State, ptr %16, i32 0, i32 8
  %18 = load ptr, ptr %17, align 8, !tbaa !9
  %19 = getelementptr inbounds nuw %struct.lua_TValue, ptr %18, i32 0, i32 0
  %20 = load ptr, ptr %19, align 8, !tbaa !21
  %21 = call noundef ptr @_Z10luaH_cloneP9lua_StateP8LuaTable(ptr noundef %15, ptr noundef %20)
  store ptr %21, ptr %3, align 8, !tbaa !22
  call void @llvm.lifetime.start.p0(i64 16, ptr %4) #7
  call void @llvm.lifetime.start.p0(i64 8, ptr %5) #7
  store ptr %4, ptr %5, align 8, !tbaa !28
  %22 = load ptr, ptr %3, align 8, !tbaa !22
  %23 = load ptr, ptr %5, align 8, !tbaa !28
  %24 = getelementptr inbounds nuw %struct.lua_TValue, ptr %23, i32 0, i32 0
  store ptr %22, ptr %24, align 8, !tbaa !21
  %25 = load ptr, ptr %5, align 8, !tbaa !28
  %26 = getelementptr inbounds nuw %struct.lua_TValue, ptr %25, i32 0, i32 2
  store i32 6, ptr %26, align 4, !tbaa !43
  call void @llvm.lifetime.end.p0(i64 8, ptr %5) #7
  %27 = load ptr, ptr %2, align 8, !tbaa !4
  call void @_Z15luaA_pushobjectP9lua_StatePK10lua_TValue(ptr noundef %27, ptr noundef %4)
  call void @llvm.lifetime.end.p0(i64 16, ptr %4) #7
  call void @llvm.lifetime.end.p0(i64 8, ptr %3) #7
  ret i32 1
}