; Function Attrs: mustprogress uwtable
define internal noundef i32 @_ZL6tcloneP9lua_State(ptr noundef %0) #0 {
  %2 = alloca %struct.lua_TValue, align 8
  tail call void @_Z14luaL_checktypeP9lua_Stateii(ptr noundef %0, i32 noundef 1, i32 noundef 6)
  %3 = tail call noundef i32 @_Z17luaL_getmetafieldP9lua_StateiPKc(ptr noundef %0, i32 noundef 1, ptr noundef nonnull @.str.29)
  %.not = icmp eq i32 %3, 0
  br i1 %.not, label %5, label %4

4:                                                ; preds = %1
  tail call void @_Z14luaL_argerrorLP9lua_StateiPKc(ptr noundef %0, i32 noundef 1, ptr noundef nonnull @.str.30) #6
  unreachable

5:                                                ; preds = %1
  %6 = getelementptr inbounds nuw i8, ptr %0, i64 16
  %7 = load ptr, ptr %6, align 8, !tbaa !4
  %8 = load ptr, ptr %7, align 8, !tbaa !19
  %9 = tail call noundef ptr @_Z10luaH_cloneP9lua_StateP8LuaTable(ptr noundef %0, ptr noundef %8)
  call void @llvm.lifetime.start.p0(i64 16, ptr nonnull %2) #7
  store ptr %9, ptr %2, align 8, !tbaa !19
  %10 = getelementptr inbounds nuw i8, ptr %2, i64 12
  store i32 6, ptr %10, align 4, !tbaa !37
  call void @_Z15luaA_pushobjectP9lua_StatePK10lua_TValue(ptr noundef %0, ptr noundef nonnull %2)
  call void @llvm.lifetime.end.p0(i64 16, ptr nonnull %2) #7
  ret i32 1
}